#include <math.h>
#include <stdio.h>
#include <stdlib.h>
#include <string.h>


int main(int argc, char* argv[])
{
	int n, i, a, j;
	char word[20];
	scanf("%d", &n);
	for(i=0;i<n;i++)
	{
		scanf("%s", word);
		a = strlen(word) - 1;
		if(word[a]=='r' || word[a]=='y')
		{   
		   word[(a-1)] = '\0';
		}
		if(word[a]=='g')
		{
			word[(a-2)] = '\0';
		}
	   printf("%s\n", word);
	}
	return 0;
}